(dp1
S'files'
p2
(dp3
S'input'
p4
(lp5
sS'output'
p6
(lp7
(dp8
S'argName'
p9
S'outputEVNTFile'
p10
sS'dataset'
p11
NsS'type'
p12
S'EVNT'
p13
sS'subFiles'
p14
(lp15
(dp16
S'run_number'
p17
(lp18
L999999L
asS'name'
p19
S'EVNT.pool.root'
p20
sS'beam_energy'
p21
(lp22
F6500000
asS'file_type'
p23
S'pool'
p24
sS'AODFixVersion'
p25
S''
sS'lumi_block'
p26
(lp27
L0L
asS'geometry'
p28
NsS'beam_type'
p29
(lp30
S'collisions'
p31
asS'file_guid'
p32
S'73BB1F42-2CBF-8D4D-BFDD-17E6A00F8273'
p33
sS'file_size'
p34
I299852
sS'conditions_tag'
p35
NsS'integrity'
p36
I01
sS'nentries'
p37
L10L
sasassS'exitMsg'
p38
S'OK'
p39
sS'exitMsgExtra'
p40
S''
sS'exitCode'
p41
I0
sS'resource'
p42
(dp43
S'machine'
p44
(dp45
S'node'
p46
S'lxplus754.cern.ch'
p47
sS'linux_distribution'
p48
(S'CentOS Linux'
S'7.8.2003'
S'Core'
tp49
sS'platform'
p50
S'Linux-3.10.0-1127.19.1.el7.x86_64-x86_64-with-centos-7.8.2003-Core'
p51
sS'cpu_family'
p52
S'6'
sS'model'
p53
S'85'
p54
sS'model_name'
p55
S'Intel Xeon Processor (Skylake, IBRS)'
p56
ssS'transform'
p57
(dp58
S'externalCpuTime'
p59
I7
sS'cpuTime'
p60
I2
sS'wallTime'
p61
I136
ssS'executor'
p62
(dp63
S'generate'
p64
(dp65
g60
I142
sg61
I118
ssssg19
S'Generate_tf'
p66
sS'created'
p67
S'2020-10-04T10:16:08'
p68
sS'cmdLine'
p69
S"'/cvmfs/atlas.cern.ch/repo/sw/software/x86_64-slc6-gcc47-opt/19.2.5/MCProd/19.2.5.33.4/InstallArea/share/bin/Generate_tf.py' '--ecmEnergy=13000.' '--runNumber=999999' '--maxEvents=10' '--randomSeed=123456' '--outputEVNTFile=EVNT.pool.root' '--skipEvents=0' '--jobConfig' 'MC15.999999.MadGraphPythia8EvtGen_NNPDF23LO_DM.py'"
p70
sS'exitAcronym'
p71
g39
sg62
(lp72
(dp73
S'metaData'
p74
(dp75
S'genFilterNames'
p76
S''
sS'randomSeed'
p77
S'123456'
p78
sS'generator'
p79
S'Pythia 8.230'
p80
sS'sumOfNegWeights'
p81
S'0.000000e+00'
p82
sS'physicsComment'
p83
S'DM'
p84
sS'sumOfNegWeightsNoFilter'
p85
S'0.000000e+00'
p86
sS'GenFiltEff'
p87
S'1.000000e+00'
p88
sS'sumOfPosWeights'
p89
S'2.983415e-04'
p90
sS'generatorTune'
p91
S'A14 NNPDF23LO'
p92
sS'generatorName'
p93
S'MadGraph(v.2.6.2)+Pythia8(v.230)+EvtGen'
p94
sS'contactPhysicist'
p95
S'MC group'
p96
sS'cross-section (nb)'
p97
S'3.054e-04'
p98
sS'sumOfPosWeightsNoFilter'
p99
S'2.983415e-04'
p100
sS'weights'
p101
S'MUR=0.5 MUF=0.5   |  MUR=0.5 dyn_scale_choice=sqrts   |  PDF=247000 MemberID=55  |  PDF=247000 MemberID=56  |  PDF=247000 MemberID=57  |  PDF=247000 MemberID=58  |  PDF=247000 MemberID=59  |  PDF=247000 MemberID=60  |  PDF=247000 MemberID=61  |  PDF=247000 MemberID=62  |  PDF=247000 MemberID=63  |  PDF=247000 MemberID=64  |  MUR=0.5 MUF=2.0   |  PDF=247000 MemberID=65  |  PDF=247000 MemberID=66  |  PDF=247000 MemberID=67  |  PDF=247000 MemberID=68  |  PDF=247000 MemberID=69  |  PDF=247000 MemberID=70  |  PDF=247000 MemberID=71  |  PDF=247000 MemberID=72  |  PDF=247000 MemberID=73  |  PDF=247000 MemberID=74  |  MUR=0.5 MUF=2.0 dyn_scale_choice=sum pt   |  PDF=247000 MemberID=75  |  PDF=247000 MemberID=76  |  PDF=247000 MemberID=77  |  PDF=247000 MemberID=78  |  PDF=247000 MemberID=79  |  PDF=247000 MemberID=80  |  PDF=247000 MemberID=81  |  PDF=247000 MemberID=82  |  PDF=247000 MemberID=83  |  PDF=247000 MemberID=84  |  MUR=0.5 MUF=2.0 dyn_scale_choice=HT   |  PDF=247000 MemberID=85  |  PDF=247000 MemberID=86  |  PDF=247000 MemberID=87  |  PDF=247000 MemberID=88  |  PDF=247000 MemberID=89  |  PDF=247000 MemberID=90  |  PDF=247000 MemberID=91  |  PDF=247000 MemberID=92  |  PDF=247000 MemberID=93  |  PDF=247000 MemberID=94  |  MUR=0.5 MUF=2.0 dyn_scale_choice=HT/2   |  PDF=247000 MemberID=95  |  PDF=247000 MemberID=96  |  PDF=247000 MemberID=97  |  PDF=247000 MemberID=98  |  PDF=247000 MemberID=99  |  PDF=247000 MemberID=100  |  MUR=0.5 MUF=2.0 dyn_scale_choice=sqrts   |  MUF=0.5   |  MUF=0.5 dyn_scale_choice=sum pt   |  MUF=0.5 dyn_scale_choice=HT   |  MUF=0.5 dyn_scale_choice=HT/2   |  MUR=0.5 MUF=0.5 dyn_scale_choice=sum pt   |  MUF=0.5 dyn_scale_choice=sqrts   |  dyn_scale_choice=sum pt   |  dyn_scale_choice=HT   |  dyn_scale_choice=HT/2   |  dyn_scale_choice=sqrts   |  MUF=2.0   |  MUF=2.0 dyn_scale_choice=sum pt   |  MUF=2.0 dyn_scale_choice=HT   |  MUF=2.0 dyn_scale_choice=HT/2   |  MUF=2.0 dyn_scale_choice=sqrts   |  MUR=0.5 MUF=0.5 dyn_scale_choice=HT   |  MUR=2.0 MUF=0.5   |  MUR=2.0 MUF=0.5 dyn_scale_choice=sum pt   |  MUR=2.0 MUF=0.5 dyn_scale_choice=HT   |  MUR=2.0 MUF=0.5 dyn_scale_choice=HT/2   |  MUR=2.0 MUF=0.5 dyn_scale_choice=sqrts   |  MUR=2.0   |  MUR=2.0 dyn_scale_choice=sum pt   |  MUR=2.0 dyn_scale_choice=HT   |  MUR=2.0 dyn_scale_choice=HT/2   |  MUR=2.0 dyn_scale_choice=sqrts   |  MUR=0.5 MUF=0.5 dyn_scale_choice=HT/2   |  MUR=2.0 MUF=2.0   |  MUR=2.0 MUF=2.0 dyn_scale_choice=sum pt   |  MUR=2.0 MUF=2.0 dyn_scale_choice=HT   |  MUR=2.0 MUF=2.0 dyn_scale_choice=HT/2   |  MUR=2.0 MUF=2.0 dyn_scale_choice=sqrts   |  |  PDF=247000 MemberID=1  |  PDF=247000 MemberID=2  |  PDF=247000 MemberID=3  |  PDF=247000 MemberID=4  |  MUR=0.5 MUF=0.5 dyn_scale_choice=sqrts   |  PDF=247000 MemberID=5  |  PDF=247000 MemberID=6  |  PDF=247000 MemberID=7  |  PDF=247000 MemberID=8  |  PDF=247000 MemberID=9  |  PDF=247000 MemberID=10  |  PDF=247000 MemberID=11  |  PDF=247000 MemberID=12  |  PDF=247000 MemberID=13  |  PDF=247000 MemberID=14  |  MUR=0.5   |  PDF=247000 MemberID=15  |  PDF=247000 MemberID=16  |  PDF=247000 MemberID=17  |  PDF=247000 MemberID=18  |  PDF=247000 MemberID=19  |  PDF=247000 MemberID=20  |  PDF=247000 MemberID=21  |  PDF=247000 MemberID=22  |  PDF=247000 MemberID=23  |  PDF=247000 MemberID=24  |  MUR=0.5 dyn_scale_choice=sum pt   |  PDF=247000 MemberID=25  |  PDF=247000 MemberID=26  |  PDF=247000 MemberID=27  |  PDF=247000 MemberID=28  |  PDF=247000 MemberID=29  |  PDF=247000 MemberID=30  |  PDF=247000 MemberID=31  |  PDF=247000 MemberID=32  |  PDF=247000 MemberID=33  |  PDF=247000 MemberID=34  |  MUR=0.5 dyn_scale_choice=HT   |  PDF=247000 MemberID=35  |  PDF=247000 MemberID=36  |  PDF=247000 MemberID=37  |  PDF=247000 MemberID=38  |  PDF=247000 MemberID=39  |  PDF=247000 MemberID=40  |  PDF=247000 MemberID=41  |  PDF=247000 MemberID=42  |  PDF=247000 MemberID=43  |  PDF=247000 MemberID=44  |  MUR=0.5 dyn_scale_choice=HT/2   |  PDF=247000 MemberID=45  |  PDF=247000 MemberID=46  |  PDF=247000 MemberID=47  |  PDF=247000 MemberID=48  |  PDF=247000 MemberID=49  |  PDF=247000 MemberID=50  |  PDF=247000 MemberID=51  |  PDF=247000 MemberID=52  |  PDF=247000 MemberID=53  |  PDF=247000 MemberID=54  |'
p102
sS'specialConfig'
p103
S'NONE'
p104
ssg19
g64
sS'asetup'
p105
NsS'exeConfig'
p106
(dp107
S'outputs'
p108
(lp109
S'EVNT'
p110
asS'script'
p111
S'athena.py'
p112
sS'substep'
p113
NssS'statusOK'
p114
I01
sS'rc'
p115
I0
sS'validation'
p116
I01
sS'errMsg'
p117
S''
sS'logfileReport'
p118
(dp119
S'details'
p120
(dp121
sS'countSummary'
p122
(dp123
S'INFO'
p124
I627
sS'IGNORED'
p125
I0
sS'VERBOSE'
p126
I0
sS'UNKNOWN'
p127
I6890
sS'WARNING'
p128
I28
sS'CRITICAL'
p129
I0
sS'ERROR'
p130
I0
sS'DEBUG'
p131
I0
sS'FATAL'
p132
I0
sssasS'reportVersion'
p133
S'1.0.1'
p134
sS'argValues'
p135
(dp136
S'randomSeed'
p137
(dp138
S'all'
p139
I123456
ssS'generatorJobNumber'
p140
I0
sS'printEvts'
p141
I5
sS'runNumber'
p142
I999999
sS'skipEvents'
p143
(dp144
S'first'
p145
I0
ssS'ecmEnergy'
p146
F13000
sS'maxEvents'
p147
(dp148
g139
I10
ssS'jobConfig'
p149
(dp150
g139
(lp151
S'MC15.999999.MadGraphPythia8EvtGen_NNPDF23LO_DM.py'
p152
assS'generatorRunMode'
p153
S'run'
p154
sS'firstEvent'
p155
I1
sS'athenaopts'
p156
(lp157
S'--preloadlib=/cvmfs/atlas.cern.ch/repo/sw/software/x86_64-slc6-gcc47-opt/19.2.5/sw/IntelSoftware/linux/x86_64/xe2013/composer_xe_2013.3.163/compiler/lib/intel64/libintlc.so.5:/cvmfs/atlas.cern.ch/repo/sw/software/x86_64-slc6-gcc47-opt/19.2.5/sw/IntelSoftware/linux/x86_64/xe2013/composer_xe_2013.3.163/compiler/lib/intel64/libimf.so'
p158
asg10
(lp159
g20
ass.